target datalayout = "e-m:e-p270:32:32-p271:32:32-p272:64:64-i64:64-i128:128-f80:128-n8:16:32:64-S128"
target triple = "x86_64-pc-linux-gnu"

@bio_err = external global ptr, align 8
@.str.18 = private unnamed_addr constant [12 x i8] c"certificate\00", align 1
@.str.19 = private unnamed_addr constant [9 x i8] c"https://\00", align 1
@.str.20 = private unnamed_addr constant [38 x i8] c"Loading %s over HTTPS is unsupported\0A\00", align 1
@.str.21 = private unnamed_addr constant [8 x i8] c"http://\00", align 1
@.str.22 = private unnamed_addr constant [27 x i8] c"Unable to load %s from %s\0A\00", align 1

; Function Attrs: nounwind uwtable
define dso_local ptr @load_cert_pass(ptr noundef %0, i32 noundef %1, i32 noundef %2, ptr noundef %3, ptr noundef %4) #0 {
  %6 = alloca ptr, align 8
  %7 = alloca i32, align 4
  %8 = alloca i32, align 4
  %9 = alloca ptr, align 8
  %10 = alloca ptr, align 8
  %11 = alloca ptr, align 8
  store ptr %0, ptr %6, align 8, !tbaa !9
  store i32 %1, ptr %7, align 4, !tbaa !25
  store i32 %2, ptr %8, align 4, !tbaa !25
  store ptr %3, ptr %9, align 8, !tbaa !9
  store ptr %4, ptr %10, align 8, !tbaa !9
  call void @llvm.lifetime.start.p0(i64 8, ptr %11) #12
  store ptr null, ptr %11, align 8, !tbaa !37
  %12 = load ptr, ptr %10, align 8, !tbaa !9
  %13 = icmp eq ptr %12, null
  br i1 %13, label %14, label %15

14:                                               ; preds = %5
  store ptr @.str.18, ptr %10, align 8, !tbaa !9
  br label %15

15:                                               ; preds = %14, %5
  %16 = load ptr, ptr %6, align 8, !tbaa !9
  %17 = icmp ne ptr %16, null
  br i1 %17, label %18, label %26

18:                                               ; preds = %15
  %19 = load ptr, ptr %6, align 8, !tbaa !9
  %20 = call i32 @strncmp(ptr noundef %19, ptr noundef @.str.19, i64 noundef 8) #14
  %21 = icmp eq i32 %20, 0
  br i1 %21, label %22, label %26

22:                                               ; preds = %18
  %23 = load ptr, ptr @bio_err, align 8, !tbaa !35
  %24 = load ptr, ptr %10, align 8, !tbaa !9
  %25 = call i32 (ptr, ptr, ...) @BIO_printf(ptr noundef %23, ptr noundef @.str.20, ptr noundef %24)
  br label %53

26:                                               ; preds = %18, %15
  %27 = load ptr, ptr %6, align 8, !tbaa !9
  %28 = icmp ne ptr %27, null
  br i1 %28, label %29, label %45

29:                                               ; preds = %26
  %30 = load ptr, ptr %6, align 8, !tbaa !9
  %31 = call i32 @strncmp(ptr noundef %30, ptr noundef @.str.21, i64 noundef 7) #14
  %32 = icmp eq i32 %31, 0
  br i1 %32, label %33, label %45

33:                                               ; preds = %29
  %34 = load ptr, ptr %6, align 8, !tbaa !9
  %35 = call ptr @X509_load_http(ptr noundef %34, ptr noundef null, ptr noundef null, i32 noundef 0)
  store ptr %35, ptr %11, align 8, !tbaa !37
  %36 = load ptr, ptr %11, align 8, !tbaa !37
  %37 = icmp eq ptr %36, null
  br i1 %37, label %38, label %44

38:                                               ; preds = %33
  %39 = load ptr, ptr @bio_err, align 8, !tbaa !35
  call void @ERR_print_errors(ptr noundef %39)
  %40 = load ptr, ptr @bio_err, align 8, !tbaa !35
  %41 = load ptr, ptr %10, align 8, !tbaa !9
  %42 = load ptr, ptr %6, align 8, !tbaa !9
  %43 = call i32 (ptr, ptr, ...) @BIO_printf(ptr noundef %40, ptr noundef @.str.22, ptr noundef %41, ptr noundef %42)
  br label %44

44:                                               ; preds = %38, %33
  br label %52

45:                                               ; preds = %29, %26
  %46 = load ptr, ptr %6, align 8, !tbaa !9
  %47 = load i32, ptr %7, align 4, !tbaa !25
  %48 = load i32, ptr %8, align 4, !tbaa !25
  %49 = load ptr, ptr %9, align 8, !tbaa !9
  %50 = load ptr, ptr %10, align 8, !tbaa !9
  %51 = call i32 @load_key_certs_crls(ptr noundef %46, i32 noundef %47, i32 noundef %48, ptr noundef %49, ptr noundef %50, i32 noundef 0, ptr noundef null, ptr noundef null, ptr noundef null, ptr noundef %11, ptr noundef null, ptr noundef null, ptr noundef null)
  br label %52

52:                                               ; preds = %45, %44
  br label %53

53:                                               ; preds = %52, %22
  %54 = load ptr, ptr %11, align 8, !tbaa !37
  call void @llvm.lifetime.end.p0(i64 8, ptr %11) #12
  ret ptr %54
}