; Function Attrs: nounwind uwtable
define dso_local ptr @load_cert_pass(ptr noundef %0, i32 noundef %1, i32 noundef %2, ptr noundef %3, ptr noundef %4) local_unnamed_addr #0 {
  %6 = alloca ptr, align 8
  call void @llvm.lifetime.start.p0(i64 8, ptr nonnull %6) #27
  store ptr null, ptr %6, align 8, !tbaa !35
  %7 = icmp eq ptr %4, null
  %spec.store.select = select i1 %7, ptr @.str.18, ptr %4
  %.not = icmp eq ptr %0, null
  br i1 %.not, label %.split, label %8

8:                                                ; preds = %5
  %9 = tail call i32 @strncmp(ptr noundef nonnull dereferenceable(1) %0, ptr noundef nonnull dereferenceable(9) @.str.19, i64 noundef 8) #29
  %10 = icmp eq i32 %9, 0
  br i1 %10, label %11, label %15

11:                                               ; preds = %8
  %12 = load ptr, ptr @bio_err, align 8, !tbaa !26
  %13 = tail call i32 (ptr, ptr, ...) @BIO_printf(ptr noundef %12, ptr noundef nonnull @.str.20, ptr noundef nonnull %spec.store.select) #27
  br label %26

.split:                                           ; preds = %5
  %14 = call i32 @load_key_certs_crls(ptr noundef null, i32 noundef %1, i32 noundef %2, ptr noundef %3, ptr noundef nonnull %spec.store.select, i32 noundef 0, ptr noundef null, ptr noundef null, ptr noundef null, ptr noundef nonnull %6, ptr noundef null, ptr noundef null, ptr noundef null)
  br label %26

15:                                               ; preds = %8
  %16 = tail call i32 @strncmp(ptr noundef nonnull dereferenceable(1) %0, ptr noundef nonnull dereferenceable(8) @.str.21, i64 noundef 7) #29
  %17 = icmp eq i32 %16, 0
  br i1 %17, label %19, label %.split13

.split13:                                         ; preds = %15
  %18 = call i32 @load_key_certs_crls(ptr noundef nonnull %0, i32 noundef %1, i32 noundef %2, ptr noundef %3, ptr noundef nonnull %spec.store.select, i32 noundef 0, ptr noundef null, ptr noundef null, ptr noundef null, ptr noundef nonnull %6, ptr noundef null, ptr noundef null, ptr noundef null)
  br label %26

19:                                               ; preds = %15
  %20 = tail call ptr @X509_load_http(ptr noundef nonnull %0, ptr noundef null, ptr noundef null, i32 noundef 0) #27
  store ptr %20, ptr %6, align 8, !tbaa !35
  %21 = icmp eq ptr %20, null
  br i1 %21, label %22, label %26

22:                                               ; preds = %19
  %23 = load ptr, ptr @bio_err, align 8, !tbaa !26
  tail call void @ERR_print_errors(ptr noundef %23) #27
  %24 = load ptr, ptr @bio_err, align 8, !tbaa !26
  %25 = tail call i32 (ptr, ptr, ...) @BIO_printf(ptr noundef %24, ptr noundef nonnull @.str.22, ptr noundef nonnull %spec.store.select, ptr noundef nonnull %0) #27
  br label %26

26:                                               ; preds = %.split, %.split13, %22, %19, %11
  %27 = load ptr, ptr %6, align 8, !tbaa !35
  call void @llvm.lifetime.end.p0(i64 8, ptr nonnull %6) #27
  ret ptr %27
}